; Function Attrs: mustprogress nounwind uwtable
define dso_local void @_ZN7testing4TestD2Ev(ptr noundef nonnull align 8 captures(none) dereferenceable(16) initializes((0, 8)) %0) unnamed_addr #5 align 2 personality ptr @__gxx_personality_v0 {
  store ptr getelementptr inbounds nuw inrange(-16, 48) (i8, ptr @_ZTVN7testing4TestE, i64 16), ptr %0, align 8, !tbaa !23
  %2 = getelementptr inbounds nuw i8, ptr %0, i64 8
  %3 = load ptr, ptr %2, align 8, !tbaa !623
  %.not.i = icmp eq ptr %3, null
  br i1 %.not.i, label %_ZNSt10unique_ptrIN7testing8internal14GTestFlagSaverESt14default_deleteIS2_EED2Ev.exit, label %_ZNKSt14default_deleteIN7testing8internal14GTestFlagSaverEEclEPS2_.exit.i

_ZNKSt14default_deleteIN7testing8internal14GTestFlagSaverEEclEPS2_.exit.i: ; preds = %1
  tail call void @_ZN7testing8internal14GTestFlagSaverD2Ev(ptr noundef nonnull align 8 dereferenceable(241) %3) #58
  tail call void @_ZdlPvm(ptr noundef nonnull %3, i64 noundef 248) #59
  br label %_ZNSt10unique_ptrIN7testing8internal14GTestFlagSaverESt14default_deleteIS2_EED2Ev.exit

_ZNSt10unique_ptrIN7testing8internal14GTestFlagSaverESt14default_deleteIS2_EED2Ev.exit: ; preds = %1, %_ZNKSt14default_deleteIN7testing8internal14GTestFlagSaverEEclEPS2_.exit.i
  store ptr null, ptr %2, align 8, !tbaa !623
  ret void
}